target datalayout = "e-m:e-p270:32:32-p271:32:32-p272:64:64-i64:64-i128:128-f80:128-n8:16:32:64-S128"
target triple = "x86_64-pc-linux-gnu"

%class.Block_Array = type { i32, ptr, ptr }
%class.Block_List = type <{ %class.Block_Array, i32, [4 x i8] }>
%class.Arena = type { i8, i8, i64, ptr, ptr, ptr, ptr }

; Function Attrs: mustprogress nounwind uwtable
define linkonce_odr hidden noundef i32 @_ZN21CountLeadingZerosImplIjLm4EE4doitEj(i32 noundef %0) #1 comdat align 2 {
  %2 = alloca i32, align 4
  store i32 %0, ptr %2, align 4
  %3 = load i32, ptr %2, align 4
  %4 = call i32 @llvm.ctlz.i32(i32 %3, i1 true)
  ret i32 %4
}

; Function Attrs: mustprogress nounwind uwtable
define linkonce_odr hidden noundef i32 @_Z19count_leading_zerosIjEjT_(i32 noundef %0) #1 comdat {
  %2 = alloca i32, align 4
  store i32 %0, ptr %2, align 4
  %3 = load i32, ptr %2, align 4
  %4 = call noundef i32 @_ZN21CountLeadingZerosImplIjLm4EE4doitEj(i32 noundef %3)
  ret i32 %4
}

; Function Attrs: mustprogress nounwind uwtable
define linkonce_odr hidden noundef i32 @_Z5log2iIjTnNSt9enable_ifIXcvbsr3std11is_integralIT_EE5valueEiE4typeELi0EEiS1_(i32 noundef %0) #1 comdat {
  %2 = alloca i32, align 4
  %3 = alloca i32, align 4
  store i32 %0, ptr %2, align 4
  store i32 32, ptr %3, align 4
  %4 = load i32, ptr %2, align 4
  %5 = call noundef i32 @_Z19count_leading_zerosIjEjT_(i32 noundef %4)
  %6 = sub i32 32, %5
  %7 = sub i32 %6, 1
  ret i32 %7
}

; Function Attrs: mustprogress nounwind uwtable
define linkonce_odr hidden noundef zeroext i1 @_Z13is_power_of_2IjTnNSt9enable_ifIXcvbsr3std11is_integralIT_EE5valueEiE4typeELi0EEbS1_(i32 noundef %0) #1 comdat {
  %2 = alloca i32, align 4
  store i32 %0, ptr %2, align 4
  %3 = load i32, ptr %2, align 4
  %4 = icmp ugt i32 %3, 0
  br i1 %4, label %5, label %11

5:                                                ; preds = %1
  %6 = load i32, ptr %2, align 4
  %7 = load i32, ptr %2, align 4
  %8 = sub i32 %7, 1
  %9 = and i32 %6, %8
  %10 = icmp eq i32 %9, 0
  br label %11

11:                                               ; preds = %5, %1
  %12 = phi i1 [ false, %1 ], [ %10, %5 ]
  ret i1 %12
}

; Function Attrs: mustprogress nounwind uwtable
define linkonce_odr hidden noundef i64 @_Z13pointer_deltaPVKvS0_m(ptr noundef %0, ptr noundef %1, i64 noundef %2) #1 comdat {
  %4 = alloca ptr, align 8
  %5 = alloca ptr, align 8
  %6 = alloca i64, align 8
  store ptr %0, ptr %4, align 8
  store ptr %1, ptr %5, align 8
  store i64 %2, ptr %6, align 8
  %7 = load ptr, ptr %4, align 8
  %8 = ptrtoint ptr %7 to i64
  %9 = load ptr, ptr %5, align 8
  %10 = ptrtoint ptr %9 to i64
  %11 = sub i64 %8, %10
  %12 = load i64, ptr %6, align 8
  %13 = udiv i64 %11, %12
  ret i64 %13
}

; Function Attrs: mustprogress nounwind uwtable
define linkonce_odr hidden void @_ZN4Copy16pd_zero_to_bytesEPvm(ptr noundef %0, i64 noundef %1) #1 comdat align 2 {
  %3 = alloca ptr, align 8
  %4 = alloca i64, align 8
  store ptr %0, ptr %3, align 8
  store i64 %1, ptr %4, align 8
  %5 = load ptr, ptr %3, align 8
  %6 = load i64, ptr %4, align 8
  call void @llvm.memset.p0.i64(ptr align 1 %5, i8 0, i64 %6, i1 false)
  ret void
}

; Function Attrs: mustprogress nounwind uwtable
define linkonce_odr hidden noundef i32 @_Z19round_up_power_of_2IjTnNSt9enable_ifIXcvbsr3std11is_integralIT_EE5valueEiE4typeELi0EES1_S1_(i32 noundef %0) #1 comdat {
  %2 = alloca i32, align 4
  %3 = alloca i32, align 4
  store i32 %0, ptr %3, align 4
  %4 = load i32, ptr %3, align 4
  %5 = call noundef zeroext i1 @_Z13is_power_of_2IjTnNSt9enable_ifIXcvbsr3std11is_integralIT_EE5valueEiE4typeELi0EEbS1_(i32 noundef %4)
  br i1 %5, label %6, label %8

6:                                                ; preds = %1
  %7 = load i32, ptr %3, align 4
  store i32 %7, ptr %2, align 4
  br label %13

8:                                                ; preds = %1
  %9 = load i32, ptr %3, align 4
  %10 = call noundef i32 @_Z5log2iIjTnNSt9enable_ifIXcvbsr3std11is_integralIT_EE5valueEiE4typeELi0EEiS1_(i32 noundef %9)
  %11 = add nsw i32 %10, 1
  %12 = shl i32 1, %11
  store i32 %12, ptr %2, align 4
  br label %13

13:                                               ; preds = %8, %6
  %14 = load i32, ptr %2, align 4
  ret i32 %14
}

; Function Attrs: mustprogress nounwind uwtable
define linkonce_odr hidden noundef ptr @_ZN5Arena16internal_amallocEmN17AllocFailStrategy13AllocFailEnumE(ptr noundef nonnull align 8 dereferenceable(48) %0, i64 noundef %1, i32 noundef %2) #1 comdat align 2 {
  %4 = alloca ptr, align 8
  %5 = alloca ptr, align 8
  %6 = alloca i64, align 8
  %7 = alloca i32, align 4
  %8 = alloca ptr, align 8
  store ptr %0, ptr %5, align 8
  store i64 %1, ptr %6, align 8
  store i32 %2, ptr %7, align 4
  %9 = load ptr, ptr %5, align 8
  %10 = getelementptr inbounds %class.Arena, ptr %9, i32 0, i32 6
  %11 = load ptr, ptr %10, align 8
  %12 = getelementptr inbounds %class.Arena, ptr %9, i32 0, i32 5
  %13 = load ptr, ptr %12, align 8
  %14 = call noundef i64 @_Z13pointer_deltaPVKvS0_m(ptr noundef %11, ptr noundef %13, i64 noundef 1)
  %15 = load i64, ptr %6, align 8
  %16 = icmp uge i64 %14, %15
  br i1 %16, label %17, label %25

17:                                               ; preds = %3
  %18 = getelementptr inbounds %class.Arena, ptr %9, i32 0, i32 5
  %19 = load ptr, ptr %18, align 8
  store ptr %19, ptr %8, align 8
  %20 = load i64, ptr %6, align 8
  %21 = getelementptr inbounds %class.Arena, ptr %9, i32 0, i32 5
  %22 = load ptr, ptr %21, align 8
  %23 = getelementptr inbounds i8, ptr %22, i64 %20
  store ptr %23, ptr %21, align 8
  %24 = load ptr, ptr %8, align 8
  store ptr %24, ptr %4, align 8
  br label %29

25:                                               ; preds = %3
  %26 = load i64, ptr %6, align 8
  %27 = load i32, ptr %7, align 4
  %28 = call noundef ptr @_ZN5Arena4growEmN17AllocFailStrategy13AllocFailEnumE(ptr noundef nonnull align 8 dereferenceable(48) %9, i64 noundef %26, i32 noundef %27)
  store ptr %28, ptr %4, align 8
  br label %29

29:                                               ; preds = %25, %17
  %30 = load ptr, ptr %4, align 8
  ret ptr %30
}

; Function Attrs: mustprogress nounwind uwtable
define linkonce_odr hidden void @_ZN4Copy13zero_to_bytesEPvm(ptr noundef %0, i64 noundef %1) #1 comdat align 2 {
  %3 = alloca ptr, align 8
  %4 = alloca i64, align 8
  store ptr %0, ptr %3, align 8
  store i64 %1, ptr %4, align 8
  %5 = load ptr, ptr %3, align 8
  %6 = load i64, ptr %4, align 8
  call void @_ZN4Copy16pd_zero_to_bytesEPvm(ptr noundef %5, i64 noundef %6)
  ret void
}

; Function Attrs: mustprogress nounwind uwtable
define linkonce_odr hidden noundef i32 @_Z15next_power_of_2IjTnNSt9enable_ifIXcvbsr3std11is_integralIT_EE5valueEiE4typeELi0EES1_S1_(i32 noundef %0) #1 comdat {
  %2 = alloca i32, align 4
  store i32 %0, ptr %2, align 4
  %3 = load i32, ptr %2, align 4
  %4 = add i32 %3, 1
  %5 = call noundef i32 @_Z19round_up_power_of_2IjTnNSt9enable_ifIXcvbsr3std11is_integralIT_EE5valueEiE4typeELi0EES1_S1_(i32 noundef %4)
  ret i32 %5
}

; Function Attrs: mustprogress nounwind uwtable
define linkonce_odr hidden noundef ptr @_ZN5Arena7AmallocEmN17AllocFailStrategy13AllocFailEnumE(ptr noundef nonnull align 8 dereferenceable(48) %0, i64 noundef %1, i32 noundef %2) #1 comdat align 2 {
  %4 = alloca ptr, align 8
  %5 = alloca i64, align 8
  %6 = alloca i32, align 4
  store ptr %0, ptr %4, align 8
  store i64 %1, ptr %5, align 8
  store i32 %2, ptr %6, align 4
  %7 = load ptr, ptr %4, align 8
  %8 = load i64, ptr %5, align 8
  %9 = call noundef i64 @_Z8align_upImiTnNSt9enable_ifIXcvbsr3std11is_integralIT_EE5valueEiE4typeELi0EES1_S1_T0_(i64 noundef %8, i32 noundef 8)
  store i64 %9, ptr %5, align 8
  %10 = load i64, ptr %5, align 8
  %11 = load i32, ptr %6, align 4
  %12 = call noundef ptr @_ZN5Arena16internal_amallocEmN17AllocFailStrategy13AllocFailEnumE(ptr noundef nonnull align 8 dereferenceable(48) %7, i64 noundef %10, i32 noundef %11)
  ret ptr %12
}

; Function Attrs: mustprogress nounwind uwtable
define linkonce_odr hidden noundef i64 @_Z10align_downImiTnNSt9enable_ifIXcvbsr3std11is_integralIT_EE5valueEiE4typeELi0EES1_S1_T0_(i64 noundef %0, i32 noundef %1) #1 comdat {
  %3 = alloca i64, align 8
  %4 = alloca i32, align 4
  %5 = alloca i64, align 8
  store i64 %0, ptr %3, align 8
  store i32 %1, ptr %4, align 4
  %6 = load i64, ptr %3, align 8
  %7 = load i32, ptr %4, align 4
  %8 = call noundef i32 @_ZL14alignment_maskIiTnNSt9enable_ifIXcvbsr3std11is_integralIT_EE5valueEiE4typeELi0EES1_S1_(i32 noundef %7)
  %9 = sext i32 %8 to i64
  %10 = xor i64 %9, -1
  %11 = and i64 %6, %10
  store i64 %11, ptr %5, align 8
  %12 = load i64, ptr %5, align 8
  ret i64 %12
}

; Function Attrs: mustprogress nounwind uwtable
define linkonce_odr hidden noundef i64 @_Z12checked_castImmET_T0_(i64 noundef %0) #1 comdat {
  %2 = alloca i64, align 8
  %3 = alloca i64, align 8
  store i64 %0, ptr %2, align 8
  %4 = load i64, ptr %2, align 8
  store i64 %4, ptr %3, align 8
  %5 = load i64, ptr %3, align 8
  ret i64 %5
}

; Function Attrs: mustprogress nounwind uwtable
define internal noundef i32 @_ZL14alignment_maskIiTnNSt9enable_ifIXcvbsr3std11is_integralIT_EE5valueEiE4typeELi0EES1_S1_(i32 noundef %0) #1 {
  %2 = alloca i32, align 4
  store i32 %0, ptr %2, align 4
  %3 = load i32, ptr %2, align 4
  %4 = sub nsw i32 %3, 1
  ret i32 %4
}

; Function Attrs: mustprogress nounwind uwtable
define hidden void @_ZN11Block_Array4growEj(ptr noundef nonnull align 8 dereferenceable(24) %0, i32 noundef %1) #1 align 2 {
  %3 = alloca ptr, align 8
  %4 = alloca i32, align 4
  %5 = alloca i32, align 4
  store ptr %0, ptr %3, align 8
  store i32 %1, ptr %4, align 4
  %6 = load ptr, ptr %3, align 8
  %7 = load i32, ptr %4, align 4
  %8 = getelementptr inbounds %class.Block_Array, ptr %6, i32 0, i32 0
  %9 = load i32, ptr %8, align 8
  %10 = icmp ult i32 %7, %9
  br i1 %10, label %11, label %12

11:                                               ; preds = %2
  br label %59

12:                                               ; preds = %2
  %13 = getelementptr inbounds %class.Block_Array, ptr %6, i32 0, i32 0
  %14 = load i32, ptr %13, align 8
  %15 = icmp ne i32 %14, 0
  br i1 %15, label %29, label %16

16:                                               ; preds = %12
  %17 = getelementptr inbounds %class.Block_Array, ptr %6, i32 0, i32 0
  store i32 1, ptr %17, align 8
  %18 = getelementptr inbounds %class.Block_Array, ptr %6, i32 0, i32 1
  %19 = load ptr, ptr %18, align 8
  %20 = getelementptr inbounds %class.Block_Array, ptr %6, i32 0, i32 0
  %21 = load i32, ptr %20, align 8
  %22 = zext i32 %21 to i64
  %23 = mul i64 %22, 8
  %24 = call noundef ptr @_ZN5Arena7AmallocEmN17AllocFailStrategy13AllocFailEnumE(ptr noundef nonnull align 8 dereferenceable(48) %19, i64 noundef %23, i32 noundef 0)
  %25 = getelementptr inbounds %class.Block_Array, ptr %6, i32 0, i32 2
  store ptr %24, ptr %25, align 8
  %26 = getelementptr inbounds %class.Block_Array, ptr %6, i32 0, i32 2
  %27 = load ptr, ptr %26, align 8
  %28 = getelementptr inbounds ptr, ptr %27, i64 0
  store ptr null, ptr %28, align 8
  br label %29

29:                                               ; preds = %16, %12
  %30 = getelementptr inbounds %class.Block_Array, ptr %6, i32 0, i32 0
  %31 = load i32, ptr %30, align 8
  store i32 %31, ptr %5, align 4
  %32 = load i32, ptr %4, align 4
  %33 = call noundef i32 @_Z15next_power_of_2IjTnNSt9enable_ifIXcvbsr3std11is_integralIT_EE5valueEiE4typeELi0EES1_S1_(i32 noundef %32)
  %34 = getelementptr inbounds %class.Block_Array, ptr %6, i32 0, i32 0
  store i32 %33, ptr %34, align 8
  %35 = getelementptr inbounds %class.Block_Array, ptr %6, i32 0, i32 1
  %36 = load ptr, ptr %35, align 8
  %37 = getelementptr inbounds %class.Block_Array, ptr %6, i32 0, i32 2
  %38 = load ptr, ptr %37, align 8
  %39 = load i32, ptr %5, align 4
  %40 = zext i32 %39 to i64
  %41 = mul i64 %40, 8
  %42 = getelementptr inbounds %class.Block_Array, ptr %6, i32 0, i32 0
  %43 = load i32, ptr %42, align 8
  %44 = zext i32 %43 to i64
  %45 = mul i64 %44, 8
  %46 = call noundef ptr @_ZN5Arena8AreallocEPvmmN17AllocFailStrategy13AllocFailEnumE(ptr noundef nonnull align 8 dereferenceable(48) %36, ptr noundef %38, i64 noundef %41, i64 noundef %45, i32 noundef 0)
  %47 = getelementptr inbounds %class.Block_Array, ptr %6, i32 0, i32 2
  store ptr %46, ptr %47, align 8
  %48 = getelementptr inbounds %class.Block_Array, ptr %6, i32 0, i32 2
  %49 = load ptr, ptr %48, align 8
  %50 = load i32, ptr %5, align 4
  %51 = zext i32 %50 to i64
  %52 = getelementptr inbounds ptr, ptr %49, i64 %51
  %53 = getelementptr inbounds %class.Block_Array, ptr %6, i32 0, i32 0
  %54 = load i32, ptr %53, align 8
  %55 = load i32, ptr %5, align 4
  %56 = sub i32 %54, %55
  %57 = zext i32 %56 to i64
  %58 = mul i64 %57, 8
  call void @_ZN4Copy13zero_to_bytesEPvm(ptr noundef %52, i64 noundef %58)
  br label %59

59:                                               ; preds = %29, %11
  ret void
}

; Function Attrs: mustprogress nounwind uwtable
define linkonce_odr hidden noundef i32 @_ZNK11Block_Array3MaxEv(ptr noundef nonnull align 8 dereferenceable(24) %0) #1 comdat align 2 {
  %2 = alloca ptr, align 8
  store ptr %0, ptr %2, align 8
  %3 = load ptr, ptr %2, align 8
  %4 = getelementptr inbounds %class.Block_Array, ptr %3, i32 0, i32 0
  %5 = load i32, ptr %4, align 8
  ret i32 %5
}

; Function Attrs: mustprogress nounwind uwtable
define linkonce_odr hidden noundef i64 @_Z8align_upImiTnNSt9enable_ifIXcvbsr3std11is_integralIT_EE5valueEiE4typeELi0EES1_S1_T0_(i64 noundef %0, i32 noundef %1) #1 comdat {
  %3 = alloca i64, align 8
  %4 = alloca i32, align 4
  %5 = alloca i64, align 8
  store i64 %0, ptr %3, align 8
  store i32 %1, ptr %4, align 4
  %6 = load i64, ptr %3, align 8
  %7 = load i32, ptr %4, align 4
  %8 = call noundef i32 @_ZL14alignment_maskIiTnNSt9enable_ifIXcvbsr3std11is_integralIT_EE5valueEiE4typeELi0EES1_S1_(i32 noundef %7)
  %9 = sext i32 %8 to i64
  %10 = add i64 %6, %9
  %11 = call noundef i64 @_Z12checked_castImmET_T0_(i64 noundef %10)
  store i64 %11, ptr %5, align 8
  %12 = load i64, ptr %5, align 8
  %13 = load i32, ptr %4, align 4
  %14 = call noundef i64 @_Z10align_downImiTnNSt9enable_ifIXcvbsr3std11is_integralIT_EE5valueEiE4typeELi0EES1_S1_T0_(i64 noundef %12, i32 noundef %13)
  ret i64 %14
}

; Function Attrs: mustprogress nounwind uwtable
define linkonce_odr hidden void @_ZN4Copy20assert_byte_count_okEmm(i64 noundef %0, i64 noundef %1) #1 comdat align 2 {
  %3 = alloca i64, align 8
  %4 = alloca i64, align 8
  store i64 %0, ptr %3, align 8
  store i64 %1, ptr %4, align 8
  ret void
}

; Function Attrs: mustprogress nounwind uwtable
define linkonce_odr hidden void @_ZN4Copy16assert_params_okEPKvPvl(ptr noundef %0, ptr noundef %1, i64 noundef %2) #1 comdat align 2 {
  %4 = alloca ptr, align 8
  %5 = alloca ptr, align 8
  %6 = alloca i64, align 8
  store ptr %0, ptr %4, align 8
  store ptr %1, ptr %5, align 8
  store i64 %2, ptr %6, align 8
  ret void
}

; Function Attrs: mustprogress nounwind uwtable
define linkonce_odr hidden void @_ZN11Block_Array3mapEjP5Block(ptr noundef nonnull align 8 dereferenceable(24) %0, i32 noundef %1, ptr noundef %2) #1 comdat align 2 {
  %4 = alloca ptr, align 8
  %5 = alloca i32, align 4
  %6 = alloca ptr, align 8
  store ptr %0, ptr %4, align 8
  store i32 %1, ptr %5, align 4
  store ptr %2, ptr %6, align 8
  %7 = load ptr, ptr %4, align 8
  %8 = load i32, ptr %5, align 4
  %9 = call noundef i32 @_ZNK11Block_Array3MaxEv(ptr noundef nonnull align 8 dereferenceable(24) %7)
  %10 = icmp uge i32 %8, %9
  br i1 %10, label %11, label %13

11:                                               ; preds = %3
  %12 = load i32, ptr %5, align 4
  call void @_ZN11Block_Array4growEj(ptr noundef nonnull align 8 dereferenceable(24) %7, i32 noundef %12)
  br label %13

13:                                               ; preds = %11, %3
  %14 = load ptr, ptr %6, align 8
  %15 = getelementptr inbounds %class.Block_Array, ptr %7, i32 0, i32 2
  %16 = load ptr, ptr %15, align 8
  %17 = load i32, ptr %5, align 4
  %18 = zext i32 %17 to i64
  %19 = getelementptr inbounds ptr, ptr %16, i64 %18
  store ptr %14, ptr %19, align 8
  ret void
}

; Function Attrs: mustprogress nounwind uwtable
define linkonce_odr hidden void @_ZN4Copy24conjoint_words_to_higherEPKP12HeapWordImplPS1_m(ptr noundef %0, ptr noundef %1, i64 noundef %2) #1 comdat align 2 {
  %4 = alloca ptr, align 8
  %5 = alloca ptr, align 8
  %6 = alloca i64, align 8
  %7 = alloca i64, align 8
  store ptr %0, ptr %4, align 8
  store ptr %1, ptr %5, align 8
  store i64 %2, ptr %6, align 8
  %8 = load ptr, ptr %4, align 8
  %9 = load ptr, ptr %5, align 8
  call void @_ZN4Copy16assert_params_okEPKvPvl(ptr noundef %8, ptr noundef %9, i64 noundef 8)
  %10 = load i64, ptr %6, align 8
  call void @_ZN4Copy20assert_byte_count_okEmm(i64 noundef %10, i64 noundef 8)
  %11 = load i64, ptr %6, align 8
  %12 = icmp eq i64 %11, 0
  br i1 %12, label %13, label %14

13:                                               ; preds = %3
  br label %36

14:                                               ; preds = %3
  %15 = load i64, ptr %6, align 8
  %16 = call noundef i64 @_Z8align_upImiTnNSt9enable_ifIXcvbsr3std11is_integralIT_EE5valueEiE4typeELi0EES1_S1_T0_(i64 noundef %15, i32 noundef 8)
  %17 = lshr i64 %16, 3
  store i64 %17, ptr %7, align 8
  %18 = load i64, ptr %7, align 8
  %19 = sub i64 %18, 1
  %20 = load ptr, ptr %4, align 8
  %21 = getelementptr inbounds ptr, ptr %20, i64 %19
  store ptr %21, ptr %4, align 8
  %22 = load i64, ptr %7, align 8
  %23 = sub i64 %22, 1
  %24 = load ptr, ptr %5, align 8
  %25 = getelementptr inbounds ptr, ptr %24, i64 %23
  store ptr %25, ptr %5, align 8
  br label %26

26:                                               ; preds = %30, %14
  %27 = load i64, ptr %7, align 8
  %28 = add i64 %27, -1
  store i64 %28, ptr %7, align 8
  %29 = icmp ugt i64 %27, 0
  br i1 %29, label %30, label %36

30:                                               ; preds = %26
  %31 = load ptr, ptr %4, align 8
  %32 = getelementptr inbounds ptr, ptr %31, i32 -1
  store ptr %32, ptr %4, align 8
  %33 = load ptr, ptr %31, align 8
  %34 = load ptr, ptr %5, align 8
  %35 = getelementptr inbounds ptr, ptr %34, i32 -1
  store ptr %35, ptr %5, align 8
  store ptr %33, ptr %34, align 8
  br label %26, !llvm.loop !8

36:                                               ; preds = %26, %13
  ret void
}

; Function Attrs: mustprogress nounwind uwtable
define linkonce_odr hidden void @_ZN10Block_List4pushEP5Block(ptr noundef nonnull align 8 dereferenceable(28) %0, ptr noundef %1) #1 comdat align 2 {
  %3 = alloca ptr, align 8
  %4 = alloca ptr, align 8
  store ptr %0, ptr %3, align 8
  store ptr %1, ptr %4, align 8
  %5 = load ptr, ptr %3, align 8
  %6 = getelementptr inbounds %class.Block_List, ptr %5, i32 0, i32 1
  %7 = load i32, ptr %6, align 8
  %8 = add i32 %7, 1
  store i32 %8, ptr %6, align 8
  %9 = load ptr, ptr %4, align 8
  call void @_ZN11Block_Array3mapEjP5Block(ptr noundef nonnull align 8 dereferenceable(24) %5, i32 noundef %7, ptr noundef %9)
  ret void
}

; Function Attrs: mustprogress nounwind uwtable
define hidden void @_ZN10Block_List6insertEjP5Block(ptr noundef nonnull align 8 dereferenceable(28) %0, i32 noundef %1, ptr noundef %2) #1 align 2 {
  %4 = alloca ptr, align 8
  %5 = alloca i32, align 4
  %6 = alloca ptr, align 8
  store ptr %0, ptr %4, align 8
  store i32 %1, ptr %5, align 4
  store ptr %2, ptr %6, align 8
  %7 = load ptr, ptr %4, align 8
  %8 = load ptr, ptr %6, align 8
  call void @_ZN10Block_List4pushEP5Block(ptr noundef nonnull align 8 dereferenceable(28) %7, ptr noundef %8)
  %9 = getelementptr inbounds %class.Block_Array, ptr %7, i32 0, i32 2
  %10 = load ptr, ptr %9, align 8
  %11 = load i32, ptr %5, align 4
  %12 = zext i32 %11 to i64
  %13 = getelementptr inbounds ptr, ptr %10, i64 %12
  %14 = getelementptr inbounds %class.Block_Array, ptr %7, i32 0, i32 2
  %15 = load ptr, ptr %14, align 8
  %16 = load i32, ptr %5, align 4
  %17 = add i32 %16, 1
  %18 = zext i32 %17 to i64
  %19 = getelementptr inbounds ptr, ptr %15, i64 %18
  %20 = getelementptr inbounds %class.Block_List, ptr %7, i32 0, i32 1
  %21 = load i32, ptr %20, align 8
  %22 = load i32, ptr %5, align 4
  %23 = sub i32 %21, %22
  %24 = sub i32 %23, 1
  %25 = zext i32 %24 to i64
  %26 = mul i64 %25, 8
  call void @_ZN4Copy24conjoint_words_to_higherEPKP12HeapWordImplPS1_m(ptr noundef %13, ptr noundef %19, i64 noundef %26)
  %27 = load ptr, ptr %6, align 8
  %28 = getelementptr inbounds %class.Block_Array, ptr %7, i32 0, i32 2
  %29 = load ptr, ptr %28, align 8
  %30 = load i32, ptr %5, align 4
  %31 = zext i32 %30 to i64
  %32 = getelementptr inbounds ptr, ptr %29, i64 %31
  store ptr %27, ptr %32, align 8
  ret void
}