; Function Attrs: mustprogress nounwind uwtable
define hidden void @_ZN10Block_List6insertEjP5Block(ptr nocapture noundef nonnull align 8 dereferenceable(28) %0, i32 noundef %1, ptr noundef %2) local_unnamed_addr #0 align 2 {
  %4 = getelementptr inbounds i8, ptr %0, i64 24
  %5 = load i32, ptr %4, align 8
  %6 = add i32 %5, 1
  store i32 %6, ptr %4, align 8
  %7 = load i32, ptr %0, align 8
  %.not.i.i = icmp ugt i32 %7, %5
  br i1 %.not.i.i, label %_ZN10Block_List4pushEP5Block.exit, label %8

8:                                                ; preds = %3
  %.not.i.i.i = icmp eq i32 %7, 0
  br i1 %.not.i.i.i, label %9, label %_ZN11Block_Array4growEj.exit.i.i

9:                                                ; preds = %8
  store i32 1, ptr %0, align 8
  %10 = getelementptr inbounds i8, ptr %0, i64 8
  %11 = load ptr, ptr %10, align 8
  %12 = getelementptr inbounds i8, ptr %11, i64 40
  %13 = load ptr, ptr %12, align 8
  %14 = getelementptr inbounds i8, ptr %11, i64 32
  %15 = load ptr, ptr %14, align 8
  %16 = ptrtoint ptr %13 to i64
  %17 = ptrtoint ptr %15 to i64
  %18 = sub i64 %16, %17
  %.not.i.i.i.i.i = icmp ult i64 %18, 8
  br i1 %.not.i.i.i.i.i, label %21, label %19

19:                                               ; preds = %9
  %20 = getelementptr inbounds i8, ptr %15, i64 8
  store ptr %20, ptr %14, align 8
  br label %_ZN5Arena7AmallocEmN17AllocFailStrategy13AllocFailEnumE.exit.i.i.i

21:                                               ; preds = %9
  %22 = tail call noundef ptr @_ZN5Arena4growEmN17AllocFailStrategy13AllocFailEnumE(ptr noundef nonnull align 8 dereferenceable(48) %11, i64 noundef 8, i32 noundef 0) #12
  br label %_ZN5Arena7AmallocEmN17AllocFailStrategy13AllocFailEnumE.exit.i.i.i

_ZN5Arena7AmallocEmN17AllocFailStrategy13AllocFailEnumE.exit.i.i.i: ; preds = %21, %19
  %.0.i.i.i.i.i = phi ptr [ %15, %19 ], [ %22, %21 ]
  %23 = getelementptr inbounds i8, ptr %0, i64 16
  store ptr %.0.i.i.i.i.i, ptr %23, align 8
  store ptr null, ptr %.0.i.i.i.i.i, align 8
  %.pre.i.i.i = load i32, ptr %0, align 8
  br label %_ZN11Block_Array4growEj.exit.i.i

_ZN11Block_Array4growEj.exit.i.i:                 ; preds = %_ZN5Arena7AmallocEmN17AllocFailStrategy13AllocFailEnumE.exit.i.i.i, %8
  %24 = phi i32 [ %.pre.i.i.i, %_ZN5Arena7AmallocEmN17AllocFailStrategy13AllocFailEnumE.exit.i.i.i ], [ %7, %8 ]
  %25 = tail call range(i32 0, 33) i32 @llvm.ctpop.i32(i32 %6)
  %or.cond.i.i.i.i.i = icmp eq i32 %25, 1
  %26 = tail call range(i32 0, 33) i32 @llvm.ctlz.i32(i32 %6, i1 true)
  %27 = sub nuw nsw i32 32, %26
  %28 = shl nuw i32 1, %27
  %.0.i.i6.i.i.i = select i1 %or.cond.i.i.i.i.i, i32 %6, i32 %28
  store i32 %.0.i.i6.i.i.i, ptr %0, align 8
  %29 = getelementptr inbounds i8, ptr %0, i64 8
  %30 = load ptr, ptr %29, align 8
  %31 = getelementptr inbounds i8, ptr %0, i64 16
  %32 = load ptr, ptr %31, align 8
  %33 = zext i32 %24 to i64
  %34 = shl nuw nsw i64 %33, 3
  %35 = zext i32 %.0.i.i6.i.i.i to i64
  %36 = shl nuw nsw i64 %35, 3
  %37 = tail call noundef ptr @_ZN5Arena8AreallocEPvmmN17AllocFailStrategy13AllocFailEnumE(ptr noundef nonnull align 8 dereferenceable(48) %30, ptr noundef %32, i64 noundef %34, i64 noundef %36, i32 noundef 0) #12
  store ptr %37, ptr %31, align 8
  %38 = getelementptr inbounds ptr, ptr %37, i64 %33
  %39 = load i32, ptr %0, align 8
  %40 = sub i32 %39, %24
  %41 = zext i32 %40 to i64
  %42 = shl nuw nsw i64 %41, 3
  tail call void @llvm.memset.p0.i64(ptr align 1 %38, i8 0, i64 %42, i1 false)
  br label %_ZN10Block_List4pushEP5Block.exit

_ZN10Block_List4pushEP5Block.exit:                ; preds = %3, %_ZN11Block_Array4growEj.exit.i.i
  %43 = getelementptr inbounds i8, ptr %0, i64 16
  %44 = load ptr, ptr %43, align 8
  %45 = zext i32 %5 to i64
  %46 = getelementptr inbounds ptr, ptr %44, i64 %45
  store ptr %2, ptr %46, align 8
  %47 = zext i32 %1 to i64
  %48 = load i32, ptr %4, align 8
  %49 = xor i32 %1, -1
  %50 = add i32 %48, %49
  %51 = icmp eq i32 %50, 0
  br i1 %51, label %_ZN4Copy24conjoint_words_to_higherEPKP12HeapWordImplPS1_m.exit, label %.lr.ph.preheader.i

.lr.ph.preheader.i:                               ; preds = %_ZN10Block_List4pushEP5Block.exit
  %52 = zext i32 %50 to i64
  %53 = load ptr, ptr %43, align 8
  %54 = add i32 %1, 1
  %55 = zext i32 %54 to i64
  %56 = getelementptr ptr, ptr %53, i64 %55
  %57 = getelementptr ptr, ptr %53, i64 %47
  %58 = add nsw i64 %52, -1
  %59 = getelementptr inbounds ptr, ptr %56, i64 %58
  %60 = getelementptr inbounds ptr, ptr %57, i64 %58
  br label %.lr.ph.i

.lr.ph.i:                                         ; preds = %.lr.ph.i, %.lr.ph.preheader.i
  %.017.i = phi i64 [ %61, %.lr.ph.i ], [ %52, %.lr.ph.preheader.i ]
  %.01116.i = phi ptr [ %62, %.lr.ph.i ], [ %60, %.lr.ph.preheader.i ]
  %.01215.i = phi ptr [ %64, %.lr.ph.i ], [ %59, %.lr.ph.preheader.i ]
  %61 = add nsw i64 %.017.i, -1
  %62 = getelementptr inbounds i8, ptr %.01116.i, i64 -8
  %63 = load ptr, ptr %.01116.i, align 8
  %64 = getelementptr inbounds i8, ptr %.01215.i, i64 -8
  store ptr %63, ptr %.01215.i, align 8
  %.not.i = icmp eq i64 %61, 0
  br i1 %.not.i, label %_ZN4Copy24conjoint_words_to_higherEPKP12HeapWordImplPS1_m.exit, label %.lr.ph.i, !llvm.loop !8

_ZN4Copy24conjoint_words_to_higherEPKP12HeapWordImplPS1_m.exit: ; preds = %.lr.ph.i, %_ZN10Block_List4pushEP5Block.exit
  %65 = load ptr, ptr %43, align 8
  %66 = getelementptr inbounds ptr, ptr %65, i64 %47
  store ptr %2, ptr %66, align 8
  ret void
}